; Function Attrs: mustprogress uwtable
define hidden void @_ZN4lean7is_bit0ERKNS_4exprE(ptr dead_on_unwind noalias writable writeonly sret(%"class.lean::optional") align 8 captures(none) initializes((0, 1)) %0, ptr noundef nonnull align 8 dereferenceable(8) %1) local_unnamed_addr #0 {
  %3 = tail call noundef nonnull align 8 dereferenceable(8) ptr @_ZN4lean13get_bit0_nameEv()
  %4 = tail call noundef nonnull align 8 dereferenceable(8) ptr @_ZN4lean10get_app_fnERKNS_4exprE(ptr noundef nonnull align 8 dereferenceable(8) %1)
  %5 = load ptr, ptr %4, align 8, !tbaa !3
  %6 = getelementptr i8, ptr %5, i64 4
  %.val.i.i.i.i.i.i = load i32, ptr %6, align 4
  %.mask.i.i.i = and i32 %.val.i.i.i.i.i.i, -16777216
  %7 = icmp eq i32 %.mask.i.i.i, 67108864
  br i1 %7, label %8, label %_ZN4lean12is_const_appERKNS_4exprERKNS_4nameEj.exit.thread

8:                                                ; preds = %2
  %9 = getelementptr inbounds nuw i8, ptr %5, i64 8
  %10 = load ptr, ptr %9, align 8, !tbaa !3
  %11 = load ptr, ptr %3, align 8, !tbaa !3
  %12 = tail call zeroext i8 @lean_name_eq(ptr noundef %10, ptr noundef %11)
  %.not.i = icmp eq i8 %12, 0
  br i1 %.not.i, label %_ZN4lean12is_const_appERKNS_4exprERKNS_4nameEj.exit.thread, label %_ZN4lean12is_const_appERKNS_4exprERKNS_4nameEj.exit

_ZN4lean12is_const_appERKNS_4exprERKNS_4nameEj.exit: ; preds = %8
  %13 = tail call noundef i32 @_ZN4lean16get_app_num_argsERKNS_4exprE(ptr noundef nonnull align 8 dereferenceable(8) %1)
  %14 = icmp eq i32 %13, 3
  br i1 %14, label %15, label %_ZN4lean12is_const_appERKNS_4exprERKNS_4nameEj.exit.thread

_ZN4lean12is_const_appERKNS_4exprERKNS_4nameEj.exit.thread: ; preds = %2, %8, %_ZN4lean12is_const_appERKNS_4exprERKNS_4nameEj.exit
  store i8 0, ptr %0, align 8, !tbaa !8, !alias.scope !11
  br label %_ZN4lean9some_exprERKNS_4exprE.exit

15:                                               ; preds = %_ZN4lean12is_const_appERKNS_4exprERKNS_4nameEj.exit
  %16 = load ptr, ptr %1, align 8, !tbaa !3
  %17 = getelementptr inbounds nuw i8, ptr %16, i64 16
  tail call void @llvm.experimental.noalias.scope.decl(metadata !14)
  store i8 1, ptr %0, align 8, !tbaa !8, !alias.scope !14
  %18 = getelementptr inbounds nuw i8, ptr %0, i64 8
  %19 = load ptr, ptr %17, align 8, !tbaa !3, !noalias !14
  store ptr %19, ptr %18, align 8, !tbaa !3, !alias.scope !14
  %20 = ptrtoint ptr %19 to i64
  %21 = and i64 %20, 1
  %.not.i.i.i.i.i = icmp eq i64 %21, 0
  br i1 %.not.i.i.i.i.i, label %22, label %_ZN4lean9some_exprERKNS_4exprE.exit

22:                                               ; preds = %15
  %.val.i.i.i.i.i.i2 = load i32, ptr %19, align 4, !tbaa !17, !noalias !14
  %23 = icmp sgt i32 %.val.i.i.i.i.i.i2, 0
  br i1 %23, label %24, label %26, !prof !20

24:                                               ; preds = %22
  %25 = add nuw nsw i32 %.val.i.i.i.i.i.i2, 1
  store i32 %25, ptr %19, align 4, !tbaa !17, !noalias !14
  br label %_ZN4lean9some_exprERKNS_4exprE.exit

26:                                               ; preds = %22
  %.not.i.i.i.i.i.i = icmp eq i32 %.val.i.i.i.i.i.i2, 0
  br i1 %.not.i.i.i.i.i.i, label %_ZN4lean9some_exprERKNS_4exprE.exit, label %27

27:                                               ; preds = %26
  tail call void @lean_inc_ref_cold(ptr noundef nonnull %19), !noalias !14
  br label %_ZN4lean9some_exprERKNS_4exprE.exit

_ZN4lean9some_exprERKNS_4exprE.exit:              ; preds = %27, %26, %24, %15, %_ZN4lean12is_const_appERKNS_4exprERKNS_4nameEj.exit.thread
  ret void
}